target datalayout = "e-m:e-p270:32:32-p271:32:32-p272:64:64-i64:64-i128:128-f80:128-n8:16:32:64-S128"
target triple = "x86_64-pc-linux-gnu"

; Function Attrs: nounwind uwtable
define internal zeroext i1 @SetHomeLED(ptr noundef %0, i8 noundef zeroext %1) #0 {
  %3 = alloca ptr, align 8
  %4 = alloca i8, align 1
  %5 = alloca i8, align 1
  %6 = alloca [4 x i8], align 1
  store ptr %0, ptr %3, align 8
  store i8 %1, ptr %4, align 1
  call void @llvm.lifetime.start.p0(i64 1, ptr %5) #6
  store i8 0, ptr %5, align 1
  call void @llvm.lifetime.start.p0(i64 4, ptr %6) #6
  %7 = load i8, ptr %4, align 1
  %8 = zext i8 %7 to i32
  %9 = icmp sgt i32 %8, 0
  br i1 %9, label %10, label %29

10:                                               ; preds = %2
  %11 = load i8, ptr %4, align 1
  %12 = zext i8 %11 to i32
  %13 = icmp slt i32 %12, 65
  br i1 %13, label %14, label %20

14:                                               ; preds = %10
  %15 = load i8, ptr %4, align 1
  %16 = zext i8 %15 to i32
  %17 = add nsw i32 %16, 5
  %18 = sdiv i32 %17, 10
  %19 = trunc i32 %18 to i8
  store i8 %19, ptr %5, align 1
  br label %28

20:                                               ; preds = %10
  %21 = load i8, ptr %4, align 1
  %22 = uitofp i8 %21 to float
  %23 = fdiv float %22, 1.000000e+02
  %24 = call float @SDL_powf_REAL(float noundef %23, float noundef 0x40010A3D80000000)
  %25 = fmul float 1.500000e+01, %24
  %26 = call float @SDL_ceilf_REAL(float noundef %25)
  %27 = fptoui float %26 to i8
  store i8 %27, ptr %5, align 1
  br label %28

28:                                               ; preds = %20, %14
  br label %29

29:                                               ; preds = %28, %2
  %30 = getelementptr inbounds [4 x i8], ptr %6, i64 0, i64 0
  store i8 1, ptr %30, align 1
  %31 = load i8, ptr %5, align 1
  %32 = zext i8 %31 to i32
  %33 = and i32 %32, 15
  %34 = shl i32 %33, 4
  %35 = or i32 %34, 0
  %36 = trunc i32 %35 to i8
  %37 = getelementptr inbounds [4 x i8], ptr %6, i64 0, i64 1
  store i8 %36, ptr %37, align 1
  %38 = load i8, ptr %5, align 1
  %39 = zext i8 %38 to i32
  %40 = and i32 %39, 15
  %41 = shl i32 %40, 4
  %42 = or i32 %41, 0
  %43 = trunc i32 %42 to i8
  %44 = getelementptr inbounds [4 x i8], ptr %6, i64 0, i64 2
  store i8 %43, ptr %44, align 1
  %45 = getelementptr inbounds [4 x i8], ptr %6, i64 0, i64 3
  store i8 0, ptr %45, align 1
  %46 = load ptr, ptr %3, align 8
  %47 = getelementptr inbounds [4 x i8], ptr %6, i64 0, i64 0
  %48 = call zeroext i1 @WriteSubcommand(ptr noundef %46, i32 noundef 56, ptr noundef %47, i8 noundef zeroext 4, ptr noundef null)
  call void @llvm.lifetime.end.p0(i64 4, ptr %6) #6
  call void @llvm.lifetime.end.p0(i64 1, ptr %5) #6
  ret i1 %48
}

; Function Attrs: nounwind uwtable
define internal void @SDL_HomeLEDHintChanged(ptr noundef %0, ptr noundef %1, ptr noundef %2, ptr noundef %3) #0 {
  %5 = alloca ptr, align 8
  %6 = alloca ptr, align 8
  %7 = alloca ptr, align 8
  %8 = alloca ptr, align 8
  %9 = alloca ptr, align 8
  %10 = alloca i32, align 4
  store ptr %0, ptr %5, align 8
  store ptr %1, ptr %6, align 8
  store ptr %2, ptr %7, align 8
  store ptr %3, ptr %8, align 8
  call void @llvm.lifetime.start.p0(i64 8, ptr %9) #6
  %11 = load ptr, ptr %5, align 8
  store ptr %11, ptr %9, align 8
  %12 = load ptr, ptr %8, align 8
  %13 = icmp ne ptr %12, null
  br i1 %13, label %14, label %43

14:                                               ; preds = %4
  %15 = load ptr, ptr %8, align 8
  %16 = load i8, ptr %15, align 1
  %17 = sext i8 %16 to i32
  %18 = icmp ne i32 %17, 0
  br i1 %18, label %19, label %43

19:                                               ; preds = %14
  call void @llvm.lifetime.start.p0(i64 4, ptr %10) #6
  %20 = load ptr, ptr %8, align 8
  %21 = call ptr @SDL_strchr_REAL(ptr noundef %20, i32 noundef 46)
  %22 = icmp ne ptr %21, null
  br i1 %22, label %23, label %32

23:                                               ; preds = %19
  %24 = load ptr, ptr %8, align 8
  %25 = call double @SDL_atof_REAL(ptr noundef %24)
  %26 = fmul double 1.000000e+02, %25
  %27 = fptosi double %26 to i32
  store i32 %27, ptr %10, align 4
  %28 = load i32, ptr %10, align 4
  %29 = icmp sgt i32 %28, 255
  br i1 %29, label %30, label %31

30:                                               ; preds = %23
  store i32 255, ptr %10, align 4
  br label %31

31:                                               ; preds = %30, %23
  br label %38

32:                                               ; preds = %19
  %33 = load ptr, ptr %8, align 8
  %34 = call zeroext i1 @SDL_GetStringBoolean(ptr noundef %33, i1 noundef zeroext true)
  br i1 %34, label %35, label %36

35:                                               ; preds = %32
  store i32 100, ptr %10, align 4
  br label %37

36:                                               ; preds = %32
  store i32 0, ptr %10, align 4
  br label %37

37:                                               ; preds = %36, %35
  br label %38

38:                                               ; preds = %37, %31
  %39 = load ptr, ptr %9, align 8
  %40 = load i32, ptr %10, align 4
  %41 = trunc i32 %40 to i8
  %42 = call zeroext i1 @SetHomeLED(ptr noundef %39, i8 noundef zeroext %41)
  call void @llvm.lifetime.end.p0(i64 4, ptr %10) #6
  br label %43

43:                                               ; preds = %38, %14, %4
  call void @llvm.lifetime.end.p0(i64 8, ptr %9) #6
  ret void
}