; Function Attrs: nounwind uwtable
define internal void @SDL_HomeLEDHintChanged(ptr noundef %0, ptr readnone captures(none) %1, ptr readnone captures(none) %2, ptr noundef %3) #0 {
  %5 = alloca [4 x i8], align 1
  %.not = icmp eq ptr %3, null
  br i1 %.not, label %32, label %6

6:                                                ; preds = %4
  %7 = load i8, ptr %3, align 1
  %.not9 = icmp eq i8 %7, 0
  br i1 %.not9, label %32, label %8

8:                                                ; preds = %6
  %9 = tail call ptr @SDL_strchr_REAL(ptr noundef nonnull %3, i32 noundef 46) #9
  %.not10 = icmp eq ptr %9, null
  br i1 %.not10, label %10, label %12

10:                                               ; preds = %8
  %11 = tail call zeroext i1 @SDL_GetStringBoolean(ptr noundef nonnull %3, i1 noundef zeroext true) #9
  call void @llvm.lifetime.start.p0(i64 4, ptr nonnull %5) #9
  br i1 %11, label %.thread17, label %SetHomeLED.exit

12:                                               ; preds = %8
  %13 = tail call double @SDL_atof_REAL(ptr noundef nonnull %3) #9
  %14 = fmul double %13, 1.000000e+02
  %15 = fptosi double %14 to i32
  %spec.store.select = tail call i32 @llvm.smin.i32(i32 %15, i32 255)
  %16 = trunc i32 %spec.store.select to i8
  call void @llvm.lifetime.start.p0(i64 4, ptr nonnull %5) #9
  %.not.i = icmp eq i8 %16, 0
  br i1 %.not.i, label %SetHomeLED.exit, label %17

17:                                               ; preds = %12
  %18 = icmp ult i8 %16, 65
  br i1 %18, label %19, label %.thread17

19:                                               ; preds = %17
  %narrow.i = add nuw nsw i8 %16, 5
  %20 = udiv i8 %narrow.i, 10
  br label %SetHomeLED.exit

.thread17:                                        ; preds = %10, %17
  %.01619 = phi i8 [ %16, %17 ], [ 100, %10 ]
  %21 = uitofp i8 %.01619 to float
  %22 = fdiv float %21, 1.000000e+02
  %23 = tail call float @SDL_powf_REAL(float noundef %22, float noundef 0x40010A3D80000000) #9
  %24 = fmul float %23, 1.500000e+01
  %25 = tail call float @SDL_ceilf_REAL(float noundef %24) #9
  %26 = fptoui float %25 to i8
  br label %SetHomeLED.exit

SetHomeLED.exit:                                  ; preds = %10, %12, %19, %.thread17
  %.0.i = phi i8 [ %20, %19 ], [ %26, %.thread17 ], [ 0, %12 ], [ 0, %10 ]
  store i8 1, ptr %5, align 1
  %27 = shl i8 %.0.i, 4
  %28 = getelementptr inbounds nuw i8, ptr %5, i64 1
  store i8 %27, ptr %28, align 1
  %29 = getelementptr inbounds nuw i8, ptr %5, i64 2
  store i8 %27, ptr %29, align 1
  %30 = getelementptr inbounds nuw i8, ptr %5, i64 3
  store i8 0, ptr %30, align 1
  %31 = call fastcc noundef zeroext i1 @WriteSubcommand(ptr noundef %0, i32 noundef 56, ptr noundef nonnull %5, i8 noundef zeroext 4, ptr noundef null)
  call void @llvm.lifetime.end.p0(i64 4, ptr nonnull %5) #9
  br label %32

32:                                               ; preds = %SetHomeLED.exit, %6, %4
  ret void
}